target datalayout = "e-m:e-p270:32:32-p271:32:32-p272:64:64-i64:64-i128:128-f80:128-n8:16:32:64-S128"
target triple = "x86_64-pc-linux-gnu"

%struct.t_trxstatus = type { i32, i32, float, float, ptr, ptr, ptr, i32, ptr }

@.str.2 = private unnamed_addr constant [122 x i8] c"generated/home/dtcxzyw/WorkSpace/Projects/compilers/llvm-opt-benchmark/bench/gromacs/gromacs/src/gromacs/fileio/trxio.cpp\00", align 1
@.str.20 = private unnamed_addr constant [24 x i8] c"status->persistent_line\00", align 1
@.str.21 = private unnamed_addr constant [7 x i8] c"status\00", align 1

; Function Attrs: mustprogress uwtable
define internal void @_ZL14gmx_sfree_implI11t_trxstatusEvPKcS2_iPT_(ptr noundef %0, ptr noundef %1, i32 noundef %2, ptr noundef %3) #2 {
  %5 = alloca ptr, align 8
  %6 = alloca ptr, align 8
  %7 = alloca i32, align 4
  %8 = alloca ptr, align 8
  store ptr %0, ptr %5, align 8
  store ptr %1, ptr %6, align 8
  store i32 %2, ptr %7, align 4
  store ptr %3, ptr %8, align 8
  %9 = load ptr, ptr %5, align 8
  %10 = load ptr, ptr %6, align 8
  %11 = load i32, ptr %7, align 4
  %12 = load ptr, ptr %8, align 8
  call void @_Z9save_freePKcS0_iPv(ptr noundef %9, ptr noundef %10, i32 noundef %11, ptr noundef %12)
  ret void
}

; Function Attrs: mustprogress uwtable
define internal void @_ZL14gmx_sfree_implIcEvPKcS1_iPT_(ptr noundef %0, ptr noundef %1, i32 noundef %2, ptr noundef %3) #2 {
  %5 = alloca ptr, align 8
  %6 = alloca ptr, align 8
  %7 = alloca i32, align 4
  %8 = alloca ptr, align 8
  store ptr %0, ptr %5, align 8
  store ptr %1, ptr %6, align 8
  store i32 %2, ptr %7, align 4
  store ptr %3, ptr %8, align 8
  %9 = load ptr, ptr %5, align 8
  %10 = load ptr, ptr %6, align 8
  %11 = load i32, ptr %7, align 4
  %12 = load ptr, ptr %8, align 8
  call void @_Z9save_freePKcS0_iPv(ptr noundef %9, ptr noundef %10, i32 noundef %11, ptr noundef %12)
  ret void
}

; Function Attrs: mustprogress uwtable
define void @_Z9close_trxP11t_trxstatus(ptr noundef %0) #2 {
  %2 = alloca ptr, align 8
  store ptr %0, ptr %2, align 8
  %3 = load ptr, ptr %2, align 8
  %4 = icmp eq ptr %3, null
  br i1 %4, label %5, label %6

5:                                                ; preds = %1
  br label %23

6:                                                ; preds = %1
  %7 = load ptr, ptr %2, align 8
  %8 = getelementptr inbounds %struct.t_trxstatus, ptr %7, i32 0, i32 6
  call void @_Z13gmx_tng_closePP18gmx_tng_trajectory(ptr noundef %8)
  %9 = load ptr, ptr %2, align 8
  %10 = getelementptr inbounds %struct.t_trxstatus, ptr %9, i32 0, i32 5
  %11 = load ptr, ptr %10, align 8
  %12 = icmp ne ptr %11, null
  br i1 %12, label %13, label %18

13:                                               ; preds = %6
  %14 = load ptr, ptr %2, align 8
  %15 = getelementptr inbounds %struct.t_trxstatus, ptr %14, i32 0, i32 5
  %16 = load ptr, ptr %15, align 8
  %17 = call noundef i32 @_Z13gmx_fio_closeP8t_fileio(ptr noundef %16)
  br label %18

18:                                               ; preds = %13, %6
  %19 = load ptr, ptr %2, align 8
  %20 = getelementptr inbounds %struct.t_trxstatus, ptr %19, i32 0, i32 8
  %21 = load ptr, ptr %20, align 8
  call void @_ZL14gmx_sfree_implIcEvPKcS1_iPT_(ptr noundef @.str.20, ptr noundef @.str.2, i32 noundef 647, ptr noundef %21)
  %22 = load ptr, ptr %2, align 8
  call void @_ZL14gmx_sfree_implI11t_trxstatusEvPKcS2_iPT_(ptr noundef @.str.21, ptr noundef @.str.2, i32 noundef 655, ptr noundef %22)
  br label %23

23:                                               ; preds = %18, %5
  ret void
}