; Function Attrs: mustprogress uwtable
define void @_Z9close_trxP11t_trxstatus(ptr noundef %0) local_unnamed_addr #2 {
  %2 = icmp eq ptr %0, null
  br i1 %2, label %12, label %3

3:                                                ; preds = %1
  %4 = getelementptr inbounds i8, ptr %0, i64 32
  tail call void @_Z13gmx_tng_closePP18gmx_tng_trajectory(ptr noundef nonnull %4)
  %5 = getelementptr inbounds i8, ptr %0, i64 24
  %6 = load ptr, ptr %5, align 8
  %.not = icmp eq ptr %6, null
  br i1 %.not, label %9, label %7

7:                                                ; preds = %3
  %8 = tail call noundef i32 @_Z13gmx_fio_closeP8t_fileio(ptr noundef nonnull %6)
  br label %9

9:                                                ; preds = %7, %3
  %10 = getelementptr inbounds i8, ptr %0, i64 48
  %11 = load ptr, ptr %10, align 8
  tail call void @_Z9save_freePKcS0_iPv(ptr noundef nonnull @.str.20, ptr noundef nonnull @.str.2, i32 noundef 647, ptr noundef %11)
  tail call void @_Z9save_freePKcS0_iPv(ptr noundef nonnull @.str.21, ptr noundef nonnull @.str.2, i32 noundef 655, ptr noundef nonnull %0)
  br label %12

12:                                               ; preds = %1, %9
  ret void
}